; Function Attrs: mustprogress uwtable
define hidden void @_ZN4cvc58internal11NodeManager13mkGroundValueERKNS0_8TypeNodeE(ptr noalias sret(%"class.cvc5::internal::NodeTemplate") align 8 %agg.result, ptr nocapture nonnull readnone align 8 %this, ptr nocapture noundef nonnull readonly align 8 dereferenceable(8) %tn) local_unnamed_addr #3 align 2 personality ptr @__gxx_personality_v0 {
entry:
  %te = alloca %"class.cvc5::internal::theory::TypeEnumerator", align 8
  %agg.tmp = alloca %"class.cvc5::internal::TypeNode", align 8
  %0 = load ptr, ptr %tn, align 8
  store ptr %0, ptr %agg.tmp, align 8
  %bf.load.i.i = load i64, ptr %0, align 8
  %bf.lshr.i.i = lshr i64 %bf.load.i.i, 40
  %1 = trunc i64 %bf.lshr.i.i to i32
  %bf.cast.i.i = and i32 %1, 1048575
  %cmp.i.i = icmp ult i32 %bf.cast.i.i, 1048574
  br i1 %cmp.i.i, label %if.then.i.i, label %if.else.i.i

if.then.i.i:                                      ; preds = %entry
  %bf.value.i.i = add i64 %bf.load.i.i, 1099511627776
  %bf.shl.i.i = and i64 %bf.value.i.i, 1152920405095219200
  %bf.clear7.i.i = and i64 %bf.load.i.i, -1152920405095219201
  %bf.set.i.i = or disjoint i64 %bf.shl.i.i, %bf.clear7.i.i
  store i64 %bf.set.i.i, ptr %0, align 8
  br label %_ZN4cvc58internal8TypeNodeC2ERKS1_.exit

if.else.i.i:                                      ; preds = %entry
  %cmp12.i.i = icmp eq i32 %bf.cast.i.i, 1048574
  br i1 %cmp12.i.i, label %if.then13.i.i, label %_ZN4cvc58internal8TypeNodeC2ERKS1_.exit

if.then13.i.i:                                    ; preds = %if.else.i.i
  %bf.set23.i.i = or i64 %bf.load.i.i, 1152920405095219200
  store i64 %bf.set23.i.i, ptr %0, align 8
  tail call void @_ZN4cvc58internal4expr9NodeValue20markRefCountMaxedOutEv(ptr noundef nonnull align 8 dereferenceable(16) %0)
  br label %_ZN4cvc58internal8TypeNodeC2ERKS1_.exit

_ZN4cvc58internal8TypeNodeC2ERKS1_.exit:          ; preds = %if.then.i.i, %if.else.i.i, %if.then13.i.i
  invoke void @_ZN4cvc58internal6theory14TypeEnumeratorC2ENS0_8TypeNodeEPNS1_24TypeEnumeratorPropertiesE(ptr noundef nonnull align 8 dereferenceable(8) %te, ptr noundef nonnull %agg.tmp, ptr noundef null)
          to label %invoke.cont unwind label %lpad

invoke.cont:                                      ; preds = %_ZN4cvc58internal8TypeNodeC2ERKS1_.exit
  %2 = load ptr, ptr %agg.tmp, align 8
  %bf.load.i.i2 = load i64, ptr %2, align 8
  %3 = and i64 %bf.load.i.i2, 1152920405095219200
  %cmp.not.i.i = icmp eq i64 %3, 1152920405095219200
  br i1 %cmp.not.i.i, label %_ZN4cvc58internal8TypeNodeD2Ev.exit, label %if.then.i.i3

if.then.i.i3:                                     ; preds = %invoke.cont
  %bf.value.i.i4 = add i64 %bf.load.i.i2, 1152920405095219200
  %bf.shl.i.i5 = and i64 %bf.value.i.i4, 1152920405095219200
  %bf.clear7.i.i6 = and i64 %bf.load.i.i2, -1152920405095219201
  %bf.set.i.i7 = or disjoint i64 %bf.shl.i.i5, %bf.clear7.i.i6
  store i64 %bf.set.i.i7, ptr %2, align 8
  %cmp12.i.i8 = icmp eq i64 %bf.shl.i.i5, 0
  br i1 %cmp12.i.i8, label %if.then13.i.i9, label %_ZN4cvc58internal8TypeNodeD2Ev.exit

if.then13.i.i9:                                   ; preds = %if.then.i.i3
  invoke void @_ZN4cvc58internal4expr9NodeValue15markForDeletionEv(ptr noundef nonnull align 8 dereferenceable(16) %2)
          to label %_ZN4cvc58internal8TypeNodeD2Ev.exit unwind label %terminate.lpad.i

terminate.lpad.i:                                 ; preds = %if.then13.i.i9
  %4 = landingpad { ptr, i32 }
          catch ptr null
  %5 = extractvalue { ptr, i32 } %4, 0
  call void @__clang_call_terminate(ptr %5) #28
  unreachable

_ZN4cvc58internal8TypeNodeD2Ev.exit:              ; preds = %invoke.cont, %if.then.i.i3, %if.then13.i.i9
  %6 = load ptr, ptr %te, align 8, !noalias !148
  %vtable.i = load ptr, ptr %6, align 8, !noalias !148
  %vfn.i = getelementptr inbounds i8, ptr %vtable.i, i64 24
  %7 = load ptr, ptr %vfn.i, align 8, !noalias !148
  invoke void %7(ptr sret(%"class.cvc5::internal::NodeTemplate") align 8 %agg.result, ptr noundef nonnull align 8 dereferenceable(16) %6)
          to label %invoke.cont3 unwind label %lpad2

invoke.cont3:                                     ; preds = %_ZN4cvc58internal8TypeNodeD2Ev.exit
  %8 = load ptr, ptr %te, align 8
  %isnull.i = icmp eq ptr %8, null
  br i1 %isnull.i, label %_ZN4cvc58internal6theory14TypeEnumeratorD2Ev.exit, label %delete.notnull.i

delete.notnull.i:                                 ; preds = %invoke.cont3
  %vtable.i10 = load ptr, ptr %8, align 8
  %vfn.i11 = getelementptr inbounds i8, ptr %vtable.i10, i64 8
  %9 = load ptr, ptr %vfn.i11, align 8
  call void %9(ptr noundef nonnull align 8 dereferenceable(16) %8) #7
  br label %_ZN4cvc58internal6theory14TypeEnumeratorD2Ev.exit

_ZN4cvc58internal6theory14TypeEnumeratorD2Ev.exit: ; preds = %invoke.cont3, %delete.notnull.i
  ret void

lpad:                                             ; preds = %_ZN4cvc58internal8TypeNodeC2ERKS1_.exit
  %10 = landingpad { ptr, i32 }
          cleanup
  call void @_ZN4cvc58internal8TypeNodeD2Ev(ptr noundef nonnull align 8 dereferenceable(8) %agg.tmp) #7
  br label %eh.resume

lpad2:                                            ; preds = %_ZN4cvc58internal8TypeNodeD2Ev.exit
  %11 = landingpad { ptr, i32 }
          cleanup
  %12 = load ptr, ptr %te, align 8
  %isnull.i12 = icmp eq ptr %12, null
  br i1 %isnull.i12, label %eh.resume, label %delete.notnull.i13

delete.notnull.i13:                               ; preds = %lpad2
  %vtable.i14 = load ptr, ptr %12, align 8
  %vfn.i15 = getelementptr inbounds i8, ptr %vtable.i14, i64 8
  %13 = load ptr, ptr %vfn.i15, align 8
  call void %13(ptr noundef nonnull align 8 dereferenceable(16) %12) #7
  br label %eh.resume

eh.resume:                                        ; preds = %delete.notnull.i13, %lpad2, %lpad
  %.pn = phi { ptr, i32 } [ %10, %lpad ], [ %11, %lpad2 ], [ %11, %delete.notnull.i13 ]
  resume { ptr, i32 } %.pn
}